; Function Attrs: null_pointer_is_valid sspstrong uwtable
define internal range(i32 -268435456, 268435456) i32 @dissect_Cdma2000PDU_PDU(ptr noundef %0, ptr noundef %1, ptr noundef %2, ptr readnone captures(none) %3) #0 {
  %5 = alloca ptr, align 8
  %6 = alloca %struct._asn1_ctx_t, align 8
  call void @llvm.lifetime.start.p0(i64 208, ptr nonnull %6) #8
  call void @asn1_ctx_init(ptr noundef nonnull %6, i32 noundef 1, i1 noundef zeroext true, ptr noundef %1)
  %7 = load i32, ptr @hf_s1ap_Cdma2000PDU_PDU, align 4
  call void @llvm.lifetime.start.p0(i64 8, ptr nonnull %5) #8
  %8 = call i32 @dissect_per_octet_string(ptr noundef %0, i32 noundef 0, ptr noundef nonnull %6, ptr noundef %2, i32 noundef %7, i32 noundef -1, i32 noundef -1, i1 noundef zeroext false, ptr noundef nonnull %5)
  %9 = load ptr, ptr %5, align 8
  %.not.i = icmp eq ptr %9, null
  %10 = load ptr, ptr @gcsna_handle, align 8
  %.not10.i = icmp eq ptr %10, null
  %or.cond.i = select i1 %.not.i, i1 true, i1 %.not10.i
  br i1 %or.cond.i, label %dissect_s1ap_Cdma2000PDU.exit, label %11

11:                                               ; preds = %4
  %12 = getelementptr inbounds nuw i8, ptr %6, i64 24
  %13 = load ptr, ptr %12, align 8
  %14 = load i32, ptr @ett_s1ap_Cdma2000PDU, align 4
  %15 = call ptr @proto_item_add_subtree(ptr noundef %13, i32 noundef %14)
  %16 = load ptr, ptr @gcsna_handle, align 8
  %17 = load ptr, ptr %5, align 8
  %18 = getelementptr inbounds nuw i8, ptr %6, i64 16
  %19 = load ptr, ptr %18, align 8
  %20 = call i32 @call_dissector(ptr noundef %16, ptr noundef %17, ptr noundef %19, ptr noundef %15)
  br label %dissect_s1ap_Cdma2000PDU.exit

dissect_s1ap_Cdma2000PDU.exit:                    ; preds = %4, %11
  call void @llvm.lifetime.end.p0(i64 8, ptr nonnull %5) #8
  %21 = add i32 %8, 7
  %22 = ashr i32 %21, 3
  call void @llvm.lifetime.end.p0(i64 208, ptr nonnull %6) #8
  ret i32 %22
}